target datalayout = "e-m:e-p270:32:32-p271:32:32-p272:64:64-i64:64-i128:128-f80:128-n8:16:32:64-S128"
target triple = "x86_64-pc-linux-gnu"

%struct.pg_conn = type { ptr, ptr, ptr, ptr, ptr, ptr, ptr, ptr, ptr, ptr, ptr, ptr, ptr, ptr, ptr, ptr, ptr, ptr, ptr, ptr, ptr, ptr, ptr, ptr, ptr, ptr, ptr, ptr, ptr, ptr, ptr, ptr, ptr, ptr, ptr, ptr, ptr, ptr, ptr, ptr, ptr, ptr, ptr, i8, ptr, i32, %struct.PGNoticeHooks, ptr, i32, i32, i32, i32, i32, [6 x i8], i8, i8, i32, i8, i8, i32, i8, i32, ptr, ptr, i32, i32, ptr, ptr, ptr, ptr, ptr, i32, %struct.SockAddr, %struct.SockAddr, i32, i32, i8, i8, i8, i8, i8, i8, ptr, i8, i32, [1 x ptr], i8, i8, ptr, ptr, i32, i32, i32, i8, i8, i32, i32, ptr, i8, i64, ptr, i64, ptr, i32, i32, ptr, i32, i8, i32, i32, i32, i32, ptr, %struct.pg_prng_state, ptr, i32, i32, i32, i32, ptr, i32, i32, i32, i32, ptr, i32, ptr, i8, ptr, ptr, ptr, i32, i8, i8, i8, i8, i8, i8, i8, i8, %struct.PQExpBufferData, i32, %struct.PQExpBufferData }
%struct.PGNoticeHooks = type { ptr, ptr, ptr, ptr }
%struct.SockAddr = type { %struct.sockaddr_storage, i32 }
%struct.sockaddr_storage = type { i16, [118 x i8], i64 }
%struct.pg_prng_state = type { i64, i64 }
%struct.PQExpBufferData = type { ptr, i64, i64 }
%struct.pg_conn_host = type { i32, ptr, ptr, ptr, ptr }

; Function Attrs: nounwind uwtable
define void @pqReleaseConnHosts(ptr noundef %0) #0 {
  %2 = alloca ptr, align 8
  %3 = alloca i32, align 4
  store ptr %0, ptr %2, align 8
  %4 = load ptr, ptr %2, align 8
  %5 = getelementptr inbounds nuw %struct.pg_conn, ptr %4, i32 0, i32 66
  %6 = load ptr, ptr %5, align 8
  %7 = icmp ne ptr %6, null
  br i1 %7, label %8, label %84

8:                                                ; preds = %1
  call void @llvm.lifetime.start.p0(i64 4, ptr %3) #12
  store i32 0, ptr %3, align 4
  br label %9

9:                                                ; preds = %77, %8
  %10 = load i32, ptr %3, align 4
  %11 = load ptr, ptr %2, align 8
  %12 = getelementptr inbounds nuw %struct.pg_conn, ptr %11, i32 0, i32 64
  %13 = load i32, ptr %12, align 8
  %14 = icmp slt i32 %10, %13
  br i1 %14, label %16, label %15

15:                                               ; preds = %9
  call void @llvm.lifetime.end.p0(i64 4, ptr %3) #12
  br label %80

16:                                               ; preds = %9
  %17 = load ptr, ptr %2, align 8
  %18 = getelementptr inbounds nuw %struct.pg_conn, ptr %17, i32 0, i32 66
  %19 = load ptr, ptr %18, align 8
  %20 = load i32, ptr %3, align 4
  %21 = sext i32 %20 to i64
  %22 = getelementptr inbounds %struct.pg_conn_host, ptr %19, i64 %21
  %23 = getelementptr inbounds nuw %struct.pg_conn_host, ptr %22, i32 0, i32 1
  %24 = load ptr, ptr %23, align 8
  call void @free(ptr noundef %24) #12
  %25 = load ptr, ptr %2, align 8
  %26 = getelementptr inbounds nuw %struct.pg_conn, ptr %25, i32 0, i32 66
  %27 = load ptr, ptr %26, align 8
  %28 = load i32, ptr %3, align 4
  %29 = sext i32 %28 to i64
  %30 = getelementptr inbounds %struct.pg_conn_host, ptr %27, i64 %29
  %31 = getelementptr inbounds nuw %struct.pg_conn_host, ptr %30, i32 0, i32 2
  %32 = load ptr, ptr %31, align 8
  call void @free(ptr noundef %32) #12
  %33 = load ptr, ptr %2, align 8
  %34 = getelementptr inbounds nuw %struct.pg_conn, ptr %33, i32 0, i32 66
  %35 = load ptr, ptr %34, align 8
  %36 = load i32, ptr %3, align 4
  %37 = sext i32 %36 to i64
  %38 = getelementptr inbounds %struct.pg_conn_host, ptr %35, i64 %37
  %39 = getelementptr inbounds nuw %struct.pg_conn_host, ptr %38, i32 0, i32 3
  %40 = load ptr, ptr %39, align 8
  call void @free(ptr noundef %40) #12
  %41 = load ptr, ptr %2, align 8
  %42 = getelementptr inbounds nuw %struct.pg_conn, ptr %41, i32 0, i32 66
  %43 = load ptr, ptr %42, align 8
  %44 = load i32, ptr %3, align 4
  %45 = sext i32 %44 to i64
  %46 = getelementptr inbounds %struct.pg_conn_host, ptr %43, i64 %45
  %47 = getelementptr inbounds nuw %struct.pg_conn_host, ptr %46, i32 0, i32 4
  %48 = load ptr, ptr %47, align 8
  %49 = icmp ne ptr %48, null
  br i1 %49, label %50, label %76

50:                                               ; preds = %16
  %51 = load ptr, ptr %2, align 8
  %52 = getelementptr inbounds nuw %struct.pg_conn, ptr %51, i32 0, i32 66
  %53 = load ptr, ptr %52, align 8
  %54 = load i32, ptr %3, align 4
  %55 = sext i32 %54 to i64
  %56 = getelementptr inbounds %struct.pg_conn_host, ptr %53, i64 %55
  %57 = getelementptr inbounds nuw %struct.pg_conn_host, ptr %56, i32 0, i32 4
  %58 = load ptr, ptr %57, align 8
  %59 = load ptr, ptr %2, align 8
  %60 = getelementptr inbounds nuw %struct.pg_conn, ptr %59, i32 0, i32 66
  %61 = load ptr, ptr %60, align 8
  %62 = load i32, ptr %3, align 4
  %63 = sext i32 %62 to i64
  %64 = getelementptr inbounds %struct.pg_conn_host, ptr %61, i64 %63
  %65 = getelementptr inbounds nuw %struct.pg_conn_host, ptr %64, i32 0, i32 4
  %66 = load ptr, ptr %65, align 8
  %67 = call i64 @strlen(ptr noundef %66) #13
  call void @explicit_bzero(ptr noundef %58, i64 noundef %67) #12
  %68 = load ptr, ptr %2, align 8
  %69 = getelementptr inbounds nuw %struct.pg_conn, ptr %68, i32 0, i32 66
  %70 = load ptr, ptr %69, align 8
  %71 = load i32, ptr %3, align 4
  %72 = sext i32 %71 to i64
  %73 = getelementptr inbounds %struct.pg_conn_host, ptr %70, i64 %72
  %74 = getelementptr inbounds nuw %struct.pg_conn_host, ptr %73, i32 0, i32 4
  %75 = load ptr, ptr %74, align 8
  call void @free(ptr noundef %75) #12
  br label %76

76:                                               ; preds = %50, %16
  br label %77

77:                                               ; preds = %76
  %78 = load i32, ptr %3, align 4
  %79 = add i32 %78, 1
  store i32 %79, ptr %3, align 4
  br label %9, !llvm.loop !43

80:                                               ; preds = %15
  %81 = load ptr, ptr %2, align 8
  %82 = getelementptr inbounds nuw %struct.pg_conn, ptr %81, i32 0, i32 66
  %83 = load ptr, ptr %82, align 8
  call void @free(ptr noundef %83) #12
  br label %84

84:                                               ; preds = %80, %1
  ret void
}