; Function Attrs: nounwind uwtable
define void @pqReleaseConnHosts(ptr noundef readonly captures(none) %0) local_unnamed_addr #0 {
  %2 = getelementptr inbounds nuw i8, ptr %0, i64 480
  %3 = load ptr, ptr %2, align 8
  %.not = icmp eq ptr %3, null
  br i1 %.not, label %29, label %.preheader

.preheader:                                       ; preds = %1
  %4 = getelementptr inbounds nuw i8, ptr %0, i64 472
  %5 = load i32, ptr %4, align 8
  %6 = icmp sgt i32 %5, 0
  br i1 %6, label %.lr.ph, label %._crit_edge

._crit_edge.loopexit:                             ; preds = %25
  %.pre = load ptr, ptr %2, align 8
  br label %._crit_edge

._crit_edge:                                      ; preds = %._crit_edge.loopexit, %.preheader
  %7 = phi ptr [ %.pre, %._crit_edge.loopexit ], [ %3, %.preheader ]
  tail call void @free(ptr noundef %7) #25
  br label %29

.lr.ph:                                           ; preds = %.preheader, %25
  %indvars.iv = phi i64 [ %indvars.iv.next, %25 ], [ 0, %.preheader ]
  %8 = load ptr, ptr %2, align 8
  %9 = getelementptr inbounds nuw %struct.pg_conn_host, ptr %8, i64 %indvars.iv, i32 1
  %10 = load ptr, ptr %9, align 8
  tail call void @free(ptr noundef %10) #25
  %11 = load ptr, ptr %2, align 8
  %12 = getelementptr inbounds nuw %struct.pg_conn_host, ptr %11, i64 %indvars.iv, i32 2
  %13 = load ptr, ptr %12, align 8
  tail call void @free(ptr noundef %13) #25
  %14 = load ptr, ptr %2, align 8
  %15 = getelementptr inbounds nuw %struct.pg_conn_host, ptr %14, i64 %indvars.iv, i32 3
  %16 = load ptr, ptr %15, align 8
  tail call void @free(ptr noundef %16) #25
  %17 = load ptr, ptr %2, align 8
  %18 = getelementptr inbounds nuw %struct.pg_conn_host, ptr %17, i64 %indvars.iv, i32 4
  %19 = load ptr, ptr %18, align 8
  %.not19 = icmp eq ptr %19, null
  br i1 %.not19, label %25, label %20

20:                                               ; preds = %.lr.ph
  %21 = tail call i64 @strlen(ptr noundef nonnull dereferenceable(1) %19) #26
  tail call void @explicit_bzero(ptr noundef nonnull %19, i64 noundef %21) #25
  %22 = load ptr, ptr %2, align 8
  %23 = getelementptr inbounds nuw %struct.pg_conn_host, ptr %22, i64 %indvars.iv, i32 4
  %24 = load ptr, ptr %23, align 8
  tail call void @free(ptr noundef %24) #25
  br label %25

25:                                               ; preds = %.lr.ph, %20
  %indvars.iv.next = add nuw nsw i64 %indvars.iv, 1
  %26 = load i32, ptr %4, align 8
  %27 = sext i32 %26 to i64
  %28 = icmp slt i64 %indvars.iv.next, %27
  br i1 %28, label %.lr.ph, label %._crit_edge.loopexit, !llvm.loop !37

29:                                               ; preds = %._crit_edge, %1
  ret void
}